; Function Attrs: nounwind uwtable
define void @dt_image_cache_set_export_timestamp(ptr noundef %0, i32 noundef %1) local_unnamed_addr #0 {
  %3 = icmp sgt i32 %1, 0
  br i1 %3, label %4, label %11

4:                                                ; preds = %2
  %5 = tail call ptr @dt_cache_get_with_caller(ptr noundef %0, i32 noundef %1, i8 noundef signext 119, ptr noundef nonnull @.str.3, i32 noundef 496) #8
  %.not = icmp eq ptr %5, null
  br i1 %.not, label %11, label %6

6:                                                ; preds = %4
  %7 = load ptr, ptr %5, align 8, !tbaa !56
  %8 = getelementptr inbounds nuw i8, ptr %7, i64 1832
  store ptr %5, ptr %8, align 8, !tbaa !113
  %9 = tail call i64 @dt_datetime_now_to_gtimespan() #8
  %10 = getelementptr inbounds nuw i8, ptr %7, i64 1456
  store i64 %9, ptr %10, align 16, !tbaa !106
  tail call void @dt_image_cache_write_release_info(ptr noundef %0, ptr noundef %7, i32 noundef 1, ptr noundef null)
  br label %11

11:                                               ; preds = %6, %4, %2
  ret void
}